#include <math.h>
#include <stdio.h>
#include <stdlib.h>
#include <string.h>

int main()
{
	int a[20000],i,j,k,m=0,n,b=0,c=1;
	scanf("%d",&n);
	k=n;
	for(i=0;i<n-1;i++)
	{
		scanf("%d ",&a[i]);
	}
	scanf("%d",&a[i]);
	for(i=0;i<n;i++)
	{
		for(j=0;j<i;j++)
		{
			if(a[j]==a[i])
			{
			   a[i]=0;
			   k-=1;
			   break;
			}
		}
	}
	for(i=0;i<n;i++)
	{
		if(a[i]!=0&&c<k)
		{
			printf("%d ",a[i]);
			c+=1;
		}
	   else
	   {
		if(a[i]!=0&&c==k)
		{
			printf("%d",a[i]);
		}
	   }
	} 
	return 0;
}
